; Function Attrs: nounwind uwtable
define hidden void @zim_DOMNamedNodeMap_count(ptr nocapture noundef readonly %0, ptr nocapture noundef writeonly %1) local_unnamed_addr #0 {
  %3 = getelementptr inbounds i8, ptr %0, i64 44
  %4 = load i32, ptr %3, align 4
  %.not = icmp eq i32 %4, 0
  br i1 %.not, label %.critedge, label %5

5:                                                ; preds = %2
  tail call void @zend_wrong_parameters_none_error() #3
  %6 = load ptr, ptr getelementptr inbounds (%struct._zend_executor_globals, ptr @executor_globals, i64 0, i32 50), align 8
  %7 = icmp ne ptr %6, null
  tail call void @llvm.assume(i1 %7)
  br label %31

.critedge:                                        ; preds = %2
  %8 = getelementptr inbounds i8, ptr %0, i64 32
  %9 = load ptr, ptr %8, align 8
  %10 = getelementptr inbounds i8, ptr %9, i64 -24
  %11 = load ptr, ptr %10, align 8
  %.not.i = icmp eq ptr %11, null
  br i1 %.not.i, label %php_dom_get_namednodemap_length.exit, label %12

12:                                               ; preds = %.critedge
  %13 = getelementptr inbounds i8, ptr %11, i64 24
  %14 = load i32, ptr %13, align 8
  switch i32 %14, label %20 [
    i32 12, label %15
    i32 6, label %15
  ]

15:                                               ; preds = %12, %12
  %16 = getelementptr inbounds i8, ptr %11, i64 32
  %17 = load ptr, ptr %16, align 8
  %.not26.i = icmp eq ptr %17, null
  br i1 %.not26.i, label %php_dom_get_namednodemap_length.exit, label %18

18:                                               ; preds = %15
  %19 = tail call i32 @xmlHashSize(ptr noundef nonnull %17) #3
  br label %php_dom_get_namednodemap_length.exit

20:                                               ; preds = %12
  %21 = load ptr, ptr %11, align 8
  %22 = tail call ptr @dom_object_get_node(ptr noundef %21) #3
  %.not23.i = icmp eq ptr %22, null
  br i1 %.not23.i, label %php_dom_get_namednodemap_length.exit, label %23

23:                                               ; preds = %20
  %24 = getelementptr inbounds i8, ptr %22, i64 88
  %25 = load ptr, ptr %24, align 8
  %.not24.i = icmp eq ptr %25, null
  br i1 %.not24.i, label %php_dom_get_namednodemap_length.exit, label %.preheader.i

.preheader.i:                                     ; preds = %23, %.preheader.i
  %.016.i = phi i32 [ %28, %.preheader.i ], [ 1, %23 ]
  %.0.i = phi ptr [ %27, %.preheader.i ], [ %25, %23 ]
  %26 = getelementptr inbounds i8, ptr %.0.i, i64 48
  %27 = load ptr, ptr %26, align 8
  %.not25.i = icmp eq ptr %27, null
  %28 = add nuw nsw i32 %.016.i, 1
  br i1 %.not25.i, label %php_dom_get_namednodemap_length.exit, label %.preheader.i

php_dom_get_namednodemap_length.exit:             ; preds = %.preheader.i, %.critedge, %15, %18, %20, %23
  %.015.i = phi i32 [ 0, %.critedge ], [ %19, %18 ], [ 0, %15 ], [ 0, %23 ], [ 0, %20 ], [ %.016.i, %.preheader.i ]
  %29 = sext i32 %.015.i to i64
  store i64 %29, ptr %1, align 8
  %30 = getelementptr inbounds i8, ptr %1, i64 8
  store i32 4, ptr %30, align 8
  br label %31

31:                                               ; preds = %php_dom_get_namednodemap_length.exit, %5
  ret void
}